target datalayout = "e-m:e-p270:32:32-p271:32:32-p272:64:64-i64:64-i128:128-f80:128-n8:16:32:64-S128"
target triple = "x86_64-pc-linux-gnu"

%struct.Pf_Mat_t_ = type { i32 }
%struct.Pf_Man_t_ = type { ptr, ptr, ptr, ptr, ptr, i32, ptr, %struct.Vec_Ptr_t_, %struct.Vec_Int_t_, %struct.Vec_Flt_t_, %struct.Vec_Int_t_, i32, i32, i32, i32, float, float, i64, [6 x double], i32 }
%struct.Vec_Ptr_t_ = type { i32, i32, ptr }
%struct.Vec_Flt_t_ = type { i32, i32, ptr }
%struct.Vec_Int_t_ = type { i32, i32, ptr }
%union.anon = type { i32 }
%struct.Vec_Mem_t_ = type { i32, i32, i32, i32, i32, i32, ptr, ptr, ptr }
%struct.Vec_Wec_t_ = type { i32, i32, ptr }

@.str.8 = private unnamed_addr constant [42 x i8] c"Gates = %d.  Truths = %d.  Matches = %d.\0A\00", align 1

; Function Attrs: inlinehint nounwind uwtable
define internal i32 @Vec_MemEntryNum(ptr noundef %0) #2 {
  %2 = alloca ptr, align 8
  store ptr %0, ptr %2, align 8, !tbaa !35
  %3 = load ptr, ptr %2, align 8, !tbaa !35
  %4 = getelementptr inbounds nuw %struct.Vec_Mem_t_, ptr %3, i32 0, i32 1
  %5 = load i32, ptr %4, align 4, !tbaa !38
  ret i32 %5
}

; Function Attrs: inlinehint nounwind uwtable
define internal i32 @Pf_Int2Mat(i32 noundef %0) #2 {
  %2 = alloca %struct.Pf_Mat_t_, align 4
  %3 = alloca i32, align 4
  %4 = alloca %union.anon, align 4
  store i32 %0, ptr %3, align 4, !tbaa !12
  call void @llvm.lifetime.start.p0(i64 4, ptr %4) #13
  %5 = load i32, ptr %3, align 4, !tbaa !12
  store i32 %5, ptr %4, align 4, !tbaa !33
  call void @llvm.memcpy.p0.p0.i64(ptr align 4 %2, ptr align 4 %4, i64 4, i1 false), !tbaa.struct !34
  call void @llvm.lifetime.end.p0(i64 4, ptr %4) #13
  %6 = getelementptr inbounds nuw %struct.Pf_Mat_t_, ptr %2, i32 0, i32 0
  %7 = load i32, ptr %6, align 4
  ret i32 %7
}

; Function Attrs: inlinehint nounwind uwtable
define internal i32 @Vec_IntEntry(ptr noundef %0, i32 noundef %1) #2 {
  %3 = alloca ptr, align 8
  %4 = alloca i32, align 4
  store ptr %0, ptr %3, align 8, !tbaa !28
  store i32 %1, ptr %4, align 4, !tbaa !12
  %5 = load ptr, ptr %3, align 8, !tbaa !28
  %6 = getelementptr inbounds nuw %struct.Vec_Int_t_, ptr %5, i32 0, i32 2
  %7 = load ptr, ptr %6, align 8, !tbaa !49
  %8 = load i32, ptr %4, align 4, !tbaa !12
  %9 = sext i32 %8 to i64
  %10 = getelementptr inbounds i32, ptr %7, i64 %9
  %11 = load i32, ptr %10, align 4, !tbaa !12
  ret i32 %11
}

; Function Attrs: inlinehint nounwind uwtable
define internal i32 @Vec_IntSize(ptr noundef %0) #2 {
  %2 = alloca ptr, align 8
  store ptr %0, ptr %2, align 8, !tbaa !28
  %3 = load ptr, ptr %2, align 8, !tbaa !28
  %4 = getelementptr inbounds nuw %struct.Vec_Int_t_, ptr %3, i32 0, i32 1
  %5 = load i32, ptr %4, align 4, !tbaa !48
  ret i32 %5
}

; Function Attrs: inlinehint nounwind uwtable
define internal ptr @Vec_WecEntry(ptr noundef %0, i32 noundef %1) #2 {
  %3 = alloca ptr, align 8
  %4 = alloca i32, align 4
  store ptr %0, ptr %3, align 8, !tbaa !43
  store i32 %1, ptr %4, align 4, !tbaa !12
  %5 = load ptr, ptr %3, align 8, !tbaa !43
  %6 = getelementptr inbounds nuw %struct.Vec_Wec_t_, ptr %5, i32 0, i32 2
  %7 = load ptr, ptr %6, align 8, !tbaa !47
  %8 = load i32, ptr %4, align 4, !tbaa !12
  %9 = sext i32 %8 to i64
  %10 = getelementptr inbounds %struct.Vec_Int_t_, ptr %7, i64 %9
  ret ptr %10
}

; Function Attrs: inlinehint nounwind uwtable
define internal i32 @Vec_WecSize(ptr noundef %0) #2 {
  %2 = alloca ptr, align 8
  store ptr %0, ptr %2, align 8, !tbaa !43
  %3 = load ptr, ptr %2, align 8, !tbaa !43
  %4 = getelementptr inbounds nuw %struct.Vec_Wec_t_, ptr %3, i32 0, i32 1
  %5 = load i32, ptr %4, align 4, !tbaa !44
  ret i32 %5
}

; Function Attrs: nounwind uwtable
define void @Pf_StoPrint(ptr noundef %0, i32 noundef %1) #0 {
  %3 = alloca ptr, align 8
  %4 = alloca i32, align 4
  %5 = alloca i32, align 4
  %6 = alloca i32, align 4
  %7 = alloca i32, align 4
  %8 = alloca i32, align 4
  %9 = alloca i32, align 4
  %10 = alloca ptr, align 8
  %11 = alloca %struct.Pf_Mat_t_, align 4
  store ptr %0, ptr %3, align 8, !tbaa !3
  store i32 %1, ptr %4, align 4, !tbaa !12
  call void @llvm.lifetime.start.p0(i64 4, ptr %5) #13
  call void @llvm.lifetime.start.p0(i64 4, ptr %6) #13
  call void @llvm.lifetime.start.p0(i64 4, ptr %7) #13
  call void @llvm.lifetime.start.p0(i64 4, ptr %8) #13
  call void @llvm.lifetime.start.p0(i64 4, ptr %9) #13
  store i32 0, ptr %9, align 4, !tbaa !12
  store i32 2, ptr %5, align 4, !tbaa !12
  br label %12

12:                                               ; preds = %68, %2
  %13 = load i32, ptr %5, align 4, !tbaa !12
  %14 = load ptr, ptr %3, align 8, !tbaa !3
  %15 = getelementptr inbounds nuw %struct.Pf_Man_t_, ptr %14, i32 0, i32 3
  %16 = load ptr, ptr %15, align 8, !tbaa !27
  %17 = call i32 @Vec_WecSize(ptr noundef %16)
  %18 = icmp slt i32 %13, %17
  br i1 %18, label %19, label %71

19:                                               ; preds = %12
  call void @llvm.lifetime.start.p0(i64 8, ptr %10) #13
  %20 = load ptr, ptr %3, align 8, !tbaa !3
  %21 = getelementptr inbounds nuw %struct.Pf_Man_t_, ptr %20, i32 0, i32 3
  %22 = load ptr, ptr %21, align 8, !tbaa !27
  %23 = load i32, ptr %5, align 4, !tbaa !12
  %24 = call ptr @Vec_WecEntry(ptr noundef %22, i32 noundef %23)
  store ptr %24, ptr %10, align 8, !tbaa !28
  store i32 0, ptr %6, align 4, !tbaa !12
  br label %25

25:                                               ; preds = %64, %19
  %26 = load i32, ptr %6, align 4, !tbaa !12
  %27 = add nsw i32 %26, 1
  %28 = load ptr, ptr %10, align 8, !tbaa !28
  %29 = call i32 @Vec_IntSize(ptr noundef %28)
  %30 = icmp slt i32 %27, %29
  br i1 %30, label %31, label %40

31:                                               ; preds = %25
  %32 = load ptr, ptr %10, align 8, !tbaa !28
  %33 = load i32, ptr %6, align 4, !tbaa !12
  %34 = call i32 @Vec_IntEntry(ptr noundef %32, i32 noundef %33)
  store i32 %34, ptr %7, align 4, !tbaa !12
  br i1 true, label %35, label %40

35:                                               ; preds = %31
  %36 = load ptr, ptr %10, align 8, !tbaa !28
  %37 = load i32, ptr %6, align 4, !tbaa !12
  %38 = add nsw i32 %37, 1
  %39 = call i32 @Vec_IntEntry(ptr noundef %36, i32 noundef %38)
  store i32 %39, ptr %8, align 4, !tbaa !12
  br label %40

40:                                               ; preds = %35, %31, %25
  %41 = phi i1 [ false, %31 ], [ false, %25 ], [ true, %35 ]
  br i1 %41, label %42, label %67

42:                                               ; preds = %40
  %43 = load i32, ptr %9, align 4, !tbaa !12
  %44 = add nsw i32 %43, 1
  store i32 %44, ptr %9, align 4, !tbaa !12
  %45 = load i32, ptr %4, align 4, !tbaa !12
  %46 = icmp ne i32 %45, 0
  br i1 %46, label %48, label %47

47:                                               ; preds = %42
  br label %64

48:                                               ; preds = %42
  %49 = load i32, ptr %5, align 4, !tbaa !12
  %50 = icmp slt i32 %49, 10
  br i1 %50, label %51, label %63

51:                                               ; preds = %48
  %52 = load ptr, ptr %3, align 8, !tbaa !3
  %53 = load i32, ptr %9, align 4, !tbaa !12
  %54 = load i32, ptr %5, align 4, !tbaa !12
  %55 = load i32, ptr %6, align 4, !tbaa !12
  %56 = sdiv i32 %55, 2
  %57 = load i32, ptr %7, align 4, !tbaa !12
  %58 = load i32, ptr %8, align 4, !tbaa !12
  %59 = call i32 @Pf_Int2Mat(i32 noundef %58)
  %60 = getelementptr inbounds nuw %struct.Pf_Mat_t_, ptr %11, i32 0, i32 0
  store i32 %59, ptr %60, align 4
  %61 = getelementptr inbounds nuw %struct.Pf_Mat_t_, ptr %11, i32 0, i32 0
  %62 = load i32, ptr %61, align 4
  call void @Pf_StoPrintOne(ptr noundef %52, i32 noundef %53, i32 noundef %54, i32 noundef %56, i32 noundef %57, i32 %62)
  br label %63

63:                                               ; preds = %51, %48
  br label %64

64:                                               ; preds = %63, %47
  %65 = load i32, ptr %6, align 4, !tbaa !12
  %66 = add nsw i32 %65, 2
  store i32 %66, ptr %6, align 4, !tbaa !12
  br label %25, !llvm.loop !76

67:                                               ; preds = %40
  call void @llvm.lifetime.end.p0(i64 8, ptr %10) #13
  br label %68

68:                                               ; preds = %67
  %69 = load i32, ptr %5, align 4, !tbaa !12
  %70 = add nsw i32 %69, 1
  store i32 %70, ptr %5, align 4, !tbaa !12
  br label %12, !llvm.loop !77

71:                                               ; preds = %12
  %72 = load ptr, ptr %3, align 8, !tbaa !3
  %73 = getelementptr inbounds nuw %struct.Pf_Man_t_, ptr %72, i32 0, i32 5
  %74 = load i32, ptr %73, align 8, !tbaa !64
  %75 = load ptr, ptr %3, align 8, !tbaa !3
  %76 = getelementptr inbounds nuw %struct.Pf_Man_t_, ptr %75, i32 0, i32 2
  %77 = load ptr, ptr %76, align 8, !tbaa !14
  %78 = call i32 @Vec_MemEntryNum(ptr noundef %77)
  %79 = load i32, ptr %9, align 4, !tbaa !12
  %80 = call i32 (ptr, ...) @printf(ptr noundef @.str.8, i32 noundef %74, i32 noundef %78, i32 noundef %79)
  call void @llvm.lifetime.end.p0(i64 4, ptr %9) #13
  call void @llvm.lifetime.end.p0(i64 4, ptr %8) #13
  call void @llvm.lifetime.end.p0(i64 4, ptr %7) #13
  call void @llvm.lifetime.end.p0(i64 4, ptr %6) #13
  call void @llvm.lifetime.end.p0(i64 4, ptr %5) #13
  ret void
}