; Function Attrs: nounwind uwtable
define void @Pf_StoPrint(ptr noundef readonly captures(none) %0, i32 noundef %1) local_unnamed_addr #0 {
  %3 = getelementptr inbounds nuw i8, ptr %0, i64 24
  %4 = load ptr, ptr %3, align 8, !tbaa !23
  %5 = getelementptr i8, ptr %4, i64 4
  %.val2835 = load i32, ptr %5, align 4, !tbaa !24
  %6 = icmp sgt i32 %.val2835, 2
  br i1 %6, label %.lr.ph39, label %._crit_edge

.lr.ph39:                                         ; preds = %2
  %.not = icmp eq i32 %1, 0
  br i1 %.not, label %.lr.ph39.split.us, label %.lr.ph39.split

.lr.ph39.split.us:                                ; preds = %.lr.ph39
  %wide.trip.count = zext nneg i32 %.val2835 to i64
  %.phi.trans.insert = getelementptr i8, ptr %4, i64 8
  %.val29.us.pre = load ptr, ptr %.phi.trans.insert, align 8, !tbaa !28
  br label %7

7:                                                ; preds = %.critedge.us, %.lr.ph39.split.us
  %indvars.iv57 = phi i64 [ %indvars.iv.next58, %.critedge.us ], [ 2, %.lr.ph39.split.us ]
  %.02536.us = phi i32 [ %.1.lcssa.us, %.critedge.us ], [ 0, %.lr.ph39.split.us ]
  %8 = getelementptr %struct.Vec_Int_t_, ptr %.val29.us.pre, i64 %indvars.iv57, i32 1
  %.val32.us = load i32, ptr %8, align 4, !tbaa !29
  %9 = icmp sgt i32 %.val32.us, 1
  br i1 %9, label %.lr.ph.us, label %.critedge.us

.critedge.us:                                     ; preds = %.lr.ph.us, %7
  %.1.lcssa.us = phi i32 [ %.02536.us, %7 ], [ %14, %.lr.ph.us ]
  %indvars.iv.next58 = add nuw nsw i64 %indvars.iv57, 1
  %exitcond.not = icmp eq i64 %indvars.iv.next58, %wide.trip.count
  br i1 %exitcond.not, label %._crit_edge, label %7, !llvm.loop !74

.lr.ph.us:                                        ; preds = %7
  %10 = tail call i32 @llvm.umax.i32(i32 %.val32.us, i32 3)
  %11 = add nsw i32 %10, -2
  %12 = lshr i32 %11, 1
  %13 = add i32 %.02536.us, 1
  %14 = add i32 %13, %12
  br label %.critedge.us

.lr.ph39.split:                                   ; preds = %.lr.ph39, %.critedge
  %15 = phi ptr [ %39, %.critedge ], [ %4, %.lr.ph39 ]
  %indvars.iv53 = phi i64 [ %indvars.iv.next54, %.critedge ], [ 2, %.lr.ph39 ]
  %.02536 = phi i32 [ %.1.lcssa, %.critedge ], [ 0, %.lr.ph39 ]
  %16 = getelementptr i8, ptr %15, i64 8
  %.val29 = load ptr, ptr %16, align 8, !tbaa !28
  %17 = getelementptr inbounds nuw %struct.Vec_Int_t_, ptr %.val29, i64 %indvars.iv53
  %18 = getelementptr i8, ptr %17, i64 4
  %.val32 = load i32, ptr %18, align 4, !tbaa !29
  %19 = icmp sgt i32 %.val32, 1
  br i1 %19, label %.lr.ph, label %.critedge

.lr.ph:                                           ; preds = %.lr.ph39.split
  %20 = icmp samesign ult i64 %indvars.iv53, 10
  %21 = getelementptr i8, ptr %17, i64 8
  br i1 %20, label %.lr.ph.split.us.preheader, label %.lr.ph.split

.lr.ph.split.us.preheader:                        ; preds = %.lr.ph
  %22 = trunc nuw nsw i64 %indvars.iv53 to i32
  br label %.lr.ph.split.us

.lr.ph.split.us:                                  ; preds = %.lr.ph.split.us.preheader, %.lr.ph.split.us
  %indvars.iv = phi i64 [ 0, %.lr.ph.split.us.preheader ], [ %indvars.iv.next, %.lr.ph.split.us ]
  %.133.us = phi i32 [ %.02536, %.lr.ph.split.us.preheader ], [ %24, %.lr.ph.split.us ]
  %23 = or disjoint i64 %indvars.iv, 1
  %24 = add nsw i32 %.133.us, 1
  %.val31.us = load ptr, ptr %21, align 8, !tbaa !30
  %25 = getelementptr inbounds nuw i32, ptr %.val31.us, i64 %23
  %26 = load i32, ptr %25, align 4, !tbaa !31
  %27 = getelementptr inbounds nuw i32, ptr %.val31.us, i64 %indvars.iv
  %28 = load i32, ptr %27, align 4, !tbaa !31
  %29 = lshr exact i64 %indvars.iv, 1
  %30 = trunc nuw i64 %29 to i32
  tail call void @Pf_StoPrintOne(ptr noundef %0, i32 noundef %24, i32 noundef %22, i32 noundef %30, i32 noundef %28, i32 %26)
  %indvars.iv.next = add nuw nsw i64 %indvars.iv, 2
  %.val.us = load i32, ptr %18, align 4, !tbaa !29
  %31 = trunc i64 %indvars.iv.next to i32
  %32 = or disjoint i32 %31, 1
  %33 = icmp slt i32 %32, %.val.us
  br i1 %33, label %.lr.ph.split.us, label %.critedge.loopexit, !llvm.loop !75

.lr.ph.split:                                     ; preds = %.lr.ph
  %34 = tail call i32 @llvm.umax.i32(i32 %.val32, i32 3)
  %35 = add nsw i32 %34, -2
  %36 = lshr i32 %35, 1
  %37 = add i32 %.02536, 1
  %38 = add i32 %37, %36
  br label %.critedge

.critedge.loopexit:                               ; preds = %.lr.ph.split.us
  %.pre = load ptr, ptr %3, align 8, !tbaa !23
  br label %.critedge

.critedge:                                        ; preds = %.lr.ph.split, %.critedge.loopexit, %.lr.ph39.split
  %39 = phi ptr [ %15, %.lr.ph39.split ], [ %.pre, %.critedge.loopexit ], [ %15, %.lr.ph.split ]
  %.1.lcssa = phi i32 [ %.02536, %.lr.ph39.split ], [ %24, %.critedge.loopexit ], [ %38, %.lr.ph.split ]
  %indvars.iv.next54 = add nuw nsw i64 %indvars.iv53, 1
  %40 = getelementptr i8, ptr %39, i64 4
  %.val28 = load i32, ptr %40, align 4, !tbaa !24
  %41 = sext i32 %.val28 to i64
  %42 = icmp slt i64 %indvars.iv.next54, %41
  br i1 %42, label %.lr.ph39.split, label %._crit_edge, !llvm.loop !74

._crit_edge:                                      ; preds = %.critedge, %.critedge.us, %2
  %.025.lcssa = phi i32 [ 0, %2 ], [ %.1.lcssa.us, %.critedge.us ], [ %.1.lcssa, %.critedge ]
  %43 = getelementptr inbounds nuw i8, ptr %0, i64 40
  %44 = load i32, ptr %43, align 8, !tbaa !66
  %45 = getelementptr inbounds nuw i8, ptr %0, i64 16
  %46 = load ptr, ptr %45, align 8, !tbaa !7
  %47 = getelementptr i8, ptr %46, i64 4
  %.val27 = load i32, ptr %47, align 4, !tbaa !36
  %48 = tail call i32 (ptr, ...) @printf(ptr noundef nonnull dereferenceable(1) @.str.8, i32 noundef %44, i32 noundef %.val27, i32 noundef %.025.lcssa)
  ret void
}